target datalayout = "e-m:e-p270:32:32-p271:32:32-p272:64:64-i64:64-i128:128-f80:128-n8:16:32:64-S128"
target triple = "x86_64-pc-linux-gnu"

%"class.llvm::SmallVectorBase" = type { ptr, i32, i32 }
%"class.llvm::SmallVectorImpl.53" = type { %"class.llvm::SmallVectorTemplateBase.54" }
%"class.llvm::SmallVectorTemplateBase.54" = type { %"class.llvm::SmallVectorTemplateCommon.55" }
%"class.llvm::SmallVectorTemplateCommon.55" = type { %"class.llvm::SmallVectorBase" }
%"class.std::__cxx11::basic_string" = type { %"struct.std::__cxx11::basic_string<char>::_Alloc_hider", i64, %union.anon }
%"struct.std::__cxx11::basic_string<char>::_Alloc_hider" = type { ptr }
%union.anon = type { i64, [8 x i8] }
%"class.llvm::ResourceManager" = type { ptr, ptr, ptr, ptr, ptr, i8, %"class.llvm::SmallVector.556", %"class.llvm::SmallVector.561", %"class.llvm::SmallVector.566", %"class.llvm::SmallVector.571", i32, i32 }
%"class.llvm::SmallVector.556" = type { %"class.llvm::SmallVectorImpl.557", %"struct.llvm::SmallVectorStorage.560" }
%"class.llvm::SmallVectorImpl.557" = type { %"class.llvm::SmallVectorTemplateBase.558" }
%"class.llvm::SmallVectorTemplateBase.558" = type { %"class.llvm::SmallVectorTemplateCommon.559" }
%"class.llvm::SmallVectorTemplateCommon.559" = type { %"class.llvm::SmallVectorBase" }
%"struct.llvm::SmallVectorStorage.560" = type { [48 x i8] }
%"class.llvm::SmallVector.561" = type { %"class.llvm::SmallVectorImpl.562", %"struct.llvm::SmallVectorStorage.565" }
%"class.llvm::SmallVectorImpl.562" = type { %"class.llvm::SmallVectorTemplateBase.563" }
%"class.llvm::SmallVectorTemplateBase.563" = type { %"class.llvm::SmallVectorTemplateCommon.564" }
%"class.llvm::SmallVectorTemplateCommon.564" = type { %"class.llvm::SmallVectorBase" }
%"struct.llvm::SmallVectorStorage.565" = type { [144 x i8] }
%"class.llvm::SmallVector.566" = type { %"class.llvm::SmallVectorImpl.567", %"struct.llvm::SmallVectorStorage.570" }
%"class.llvm::SmallVectorImpl.567" = type { %"class.llvm::SmallVectorTemplateBase.568" }
%"class.llvm::SmallVectorTemplateBase.568" = type { %"class.llvm::SmallVectorTemplateCommon.569" }
%"class.llvm::SmallVectorTemplateCommon.569" = type { %"class.llvm::SmallVectorBase" }
%"struct.llvm::SmallVectorStorage.570" = type { [48 x i8] }
%"class.llvm::SmallVector.571" = type { %"class.llvm::SmallVectorImpl.53", %"struct.llvm::SmallVectorStorage.572" }
%"struct.llvm::SmallVectorStorage.572" = type { [128 x i8] }
%"class.llvm::iterator_range.775" = type { ptr, ptr }
%"struct.llvm::MCWriteProcResEntry" = type { i16, i16, i16 }
%"class.llvm::MCSubtargetInfo" = type { ptr, %"class.llvm::Triple", %"class.std::__cxx11::basic_string", %"class.std::__cxx11::basic_string", %"class.llvm::ArrayRef.183", %"class.llvm::ArrayRef.184", ptr, ptr, ptr, ptr, ptr, ptr, ptr, %"class.llvm::FeatureBitset", %"class.std::__cxx11::basic_string" }
%"class.llvm::Triple" = type { %"class.std::__cxx11::basic_string", i32, i32, i32, i32, i32, i32 }
%"class.llvm::ArrayRef.183" = type { ptr, i64 }
%"class.llvm::ArrayRef.184" = type { ptr, i64 }
%"class.llvm::FeatureBitset" = type { %"struct.std::array" }
%"struct.std::array" = type { [5 x i64] }
%"struct.llvm::MCSchedClassDesc" = type { i16, i16, i16, i16, i16, i16, i16 }

; Function Attrs: mustprogress nounwind uwtable
define linkonce_odr hidden noundef ptr @_ZN4llvm25SmallVectorTemplateCommonIivE5beginEv(ptr noundef nonnull align 8 dereferenceable(16) %0) #1 comdat align 2 {
  %2 = alloca ptr, align 8
  store ptr %0, ptr %2, align 8
  %3 = load ptr, ptr %2, align 8
  %4 = getelementptr inbounds nuw %"class.llvm::SmallVectorBase", ptr %3, i32 0, i32 0
  %5 = load ptr, ptr %4, align 8
  ret ptr %5
}

; Function Attrs: mustprogress nounwind uwtable
define linkonce_odr hidden noundef ptr @_ZN4llvm25SmallVectorTemplateCommonImvE5beginEv(ptr noundef nonnull align 8 dereferenceable(16) %0) #1 comdat align 2 {
  %2 = alloca ptr, align 8
  store ptr %0, ptr %2, align 8
  %3 = load ptr, ptr %2, align 8
  %4 = getelementptr inbounds nuw %"class.llvm::SmallVectorBase", ptr %3, i32 0, i32 0
  %5 = load ptr, ptr %4, align 8
  ret ptr %5
}

; Function Attrs: mustprogress nounwind uwtable
define linkonce_odr hidden noundef ptr @_ZN4llvm25SmallVectorTemplateCommonINS_11SmallVectorImLj16EEEvE5beginEv(ptr noundef nonnull align 8 dereferenceable(16) %0) #1 comdat align 2 {
  %2 = alloca ptr, align 8
  store ptr %0, ptr %2, align 8
  %3 = load ptr, ptr %2, align 8
  %4 = getelementptr inbounds nuw %"class.llvm::SmallVectorBase", ptr %3, i32 0, i32 0
  %5 = load ptr, ptr %4, align 8
  ret ptr %5
}

; Function Attrs: mustprogress nounwind uwtable
define linkonce_odr hidden void @_ZN4llvm14iterator_rangeIPKNS_19MCWriteProcResEntryEEC2ES3_S3_(ptr noundef nonnull align 8 dereferenceable(16) %0, ptr noundef %1, ptr noundef %2) unnamed_addr #1 comdat align 2 {
  %4 = alloca ptr, align 8
  %5 = alloca ptr, align 8
  %6 = alloca ptr, align 8
  store ptr %0, ptr %4, align 8
  store ptr %1, ptr %5, align 8
  store ptr %2, ptr %6, align 8
  %7 = load ptr, ptr %4, align 8
  %8 = getelementptr inbounds nuw %"class.llvm::iterator_range.775", ptr %7, i32 0, i32 0
  %9 = load ptr, ptr %5, align 8
  store ptr %9, ptr %8, align 8
  %10 = getelementptr inbounds nuw %"class.llvm::iterator_range.775", ptr %7, i32 0, i32 1
  %11 = load ptr, ptr %6, align 8
  store ptr %11, ptr %10, align 8
  ret void
}

; Function Attrs: mustprogress nounwind uwtable
define linkonce_odr hidden noundef nonnull align 4 dereferenceable(4) ptr @_ZN4llvm25SmallVectorTemplateCommonIivEixEm(ptr noundef nonnull align 8 dereferenceable(16) %0, i64 noundef %1) #1 comdat align 2 {
  %3 = alloca ptr, align 8
  %4 = alloca i64, align 8
  store ptr %0, ptr %3, align 8
  store i64 %1, ptr %4, align 8
  %5 = load ptr, ptr %3, align 8
  %6 = call noundef ptr @_ZN4llvm25SmallVectorTemplateCommonIivE5beginEv(ptr noundef nonnull align 8 dereferenceable(16) %5)
  %7 = load i64, ptr %4, align 8
  %8 = getelementptr inbounds i32, ptr %6, i64 %7
  ret ptr %8
}

; Function Attrs: mustprogress nounwind uwtable
define linkonce_odr hidden noundef nonnull align 8 dereferenceable(8) ptr @_ZN4llvm25SmallVectorTemplateCommonImvEixEm(ptr noundef nonnull align 8 dereferenceable(16) %0, i64 noundef %1) #1 comdat align 2 {
  %3 = alloca ptr, align 8
  %4 = alloca i64, align 8
  store ptr %0, ptr %3, align 8
  store i64 %1, ptr %4, align 8
  %5 = load ptr, ptr %3, align 8
  %6 = call noundef ptr @_ZN4llvm25SmallVectorTemplateCommonImvE5beginEv(ptr noundef nonnull align 8 dereferenceable(16) %5)
  %7 = load i64, ptr %4, align 8
  %8 = getelementptr inbounds i64, ptr %6, i64 %7
  ret ptr %8
}

; Function Attrs: mustprogress nounwind uwtable
define linkonce_odr hidden noundef nonnull align 8 dereferenceable(144) ptr @_ZN4llvm25SmallVectorTemplateCommonINS_11SmallVectorImLj16EEEvEixEm(ptr noundef nonnull align 8 dereferenceable(16) %0, i64 noundef %1) #1 comdat align 2 {
  %3 = alloca ptr, align 8
  %4 = alloca i64, align 8
  store ptr %0, ptr %3, align 8
  store i64 %1, ptr %4, align 8
  %5 = load ptr, ptr %3, align 8
  %6 = call noundef ptr @_ZN4llvm25SmallVectorTemplateCommonINS_11SmallVectorImLj16EEEvE5beginEv(ptr noundef nonnull align 8 dereferenceable(16) %5)
  %7 = load i64, ptr %4, align 8
  %8 = getelementptr inbounds %"class.llvm::SmallVector.571", ptr %6, i64 %7
  ret ptr %8
}

; Function Attrs: mustprogress nounwind uwtable
define linkonce_odr hidden noundef i32 @_ZNK4llvm15ResourceManager14positiveModuloEii(ptr noundef nonnull align 8 dereferenceable(488) %0, i32 noundef %1, i32 noundef %2) #1 comdat align 2 {
  %4 = alloca ptr, align 8
  %5 = alloca i32, align 4
  %6 = alloca i32, align 4
  %7 = alloca i32, align 4
  store ptr %0, ptr %4, align 8
  store i32 %1, ptr %5, align 4
  store i32 %2, ptr %6, align 4
  %8 = load i32, ptr %5, align 4
  %9 = load i32, ptr %6, align 4
  %10 = srem i32 %8, %9
  store i32 %10, ptr %7, align 4
  %11 = load i32, ptr %7, align 4
  %12 = icmp slt i32 %11, 0
  br i1 %12, label %13, label %17

13:                                               ; preds = %3
  %14 = load i32, ptr %6, align 4
  %15 = load i32, ptr %7, align 4
  %16 = add nsw i32 %15, %14
  store i32 %16, ptr %7, align 4
  br label %17

17:                                               ; preds = %13, %3
  %18 = load i32, ptr %7, align 4
  ret i32 %18
}

; Function Attrs: mustprogress nounwind uwtable
define linkonce_odr hidden noundef ptr @_ZNK4llvm14iterator_rangeIPKNS_19MCWriteProcResEntryEE3endEv(ptr noundef nonnull align 8 dereferenceable(16) %0) #1 comdat align 2 {
  %2 = alloca ptr, align 8
  store ptr %0, ptr %2, align 8
  %3 = load ptr, ptr %2, align 8
  %4 = getelementptr inbounds nuw %"class.llvm::iterator_range.775", ptr %3, i32 0, i32 1
  %5 = load ptr, ptr %4, align 8
  ret ptr %5
}

; Function Attrs: mustprogress nounwind uwtable
define linkonce_odr hidden noundef ptr @_ZNK4llvm14iterator_rangeIPKNS_19MCWriteProcResEntryEE5beginEv(ptr noundef nonnull align 8 dereferenceable(16) %0) #1 comdat align 2 {
  %2 = alloca ptr, align 8
  store ptr %0, ptr %2, align 8
  %3 = load ptr, ptr %2, align 8
  %4 = getelementptr inbounds nuw %"class.llvm::iterator_range.775", ptr %3, i32 0, i32 0
  %5 = load ptr, ptr %4, align 8
  ret ptr %5
}

; Function Attrs: mustprogress nounwind uwtable
define linkonce_odr { ptr, ptr } @_ZN4llvm10make_rangeIPKNS_19MCWriteProcResEntryEEENS_14iterator_rangeIT_EES5_S5_(ptr noundef %0, ptr noundef %1) #1 comdat {
  %3 = alloca %"class.llvm::iterator_range.775", align 8
  %4 = alloca ptr, align 8
  %5 = alloca ptr, align 8
  store ptr %0, ptr %4, align 8
  store ptr %1, ptr %5, align 8
  %6 = load ptr, ptr %4, align 8
  %7 = load ptr, ptr %5, align 8
  call void @_ZN4llvm14iterator_rangeIPKNS_19MCWriteProcResEntryEEC2ES3_S3_(ptr noundef nonnull align 8 dereferenceable(16) %3, ptr noundef %6, ptr noundef %7)
  %8 = load { ptr, ptr }, ptr %3, align 8
  ret { ptr, ptr } %8
}

; Function Attrs: mustprogress nounwind uwtable
define linkonce_odr hidden noundef ptr @_ZNK4llvm15MCSubtargetInfo18getWriteProcResEndEPKNS_16MCSchedClassDescE(ptr noundef nonnull align 8 dereferenceable(288) %0, ptr noundef %1) #1 comdat align 2 {
  %3 = alloca ptr, align 8
  %4 = alloca ptr, align 8
  store ptr %0, ptr %3, align 8
  store ptr %1, ptr %4, align 8
  %5 = load ptr, ptr %3, align 8
  %6 = load ptr, ptr %4, align 8
  %7 = call noundef ptr @_ZNK4llvm15MCSubtargetInfo20getWriteProcResBeginEPKNS_16MCSchedClassDescE(ptr noundef nonnull align 8 dereferenceable(288) %5, ptr noundef %6)
  %8 = load ptr, ptr %4, align 8
  %9 = getelementptr inbounds nuw %"struct.llvm::MCSchedClassDesc", ptr %8, i32 0, i32 2
  %10 = load i16, ptr %9, align 2
  %11 = zext i16 %10 to i32
  %12 = sext i32 %11 to i64
  %13 = getelementptr inbounds %"struct.llvm::MCWriteProcResEntry", ptr %7, i64 %12
  ret ptr %13
}

; Function Attrs: mustprogress nounwind uwtable
define linkonce_odr hidden noundef ptr @_ZNK4llvm15MCSubtargetInfo20getWriteProcResBeginEPKNS_16MCSchedClassDescE(ptr noundef nonnull align 8 dereferenceable(288) %0, ptr noundef %1) #1 comdat align 2 {
  %3 = alloca ptr, align 8
  %4 = alloca ptr, align 8
  store ptr %0, ptr %3, align 8
  store ptr %1, ptr %4, align 8
  %5 = load ptr, ptr %3, align 8
  %6 = getelementptr inbounds nuw %"class.llvm::MCSubtargetInfo", ptr %5, i32 0, i32 6
  %7 = load ptr, ptr %6, align 8
  %8 = load ptr, ptr %4, align 8
  %9 = getelementptr inbounds nuw %"struct.llvm::MCSchedClassDesc", ptr %8, i32 0, i32 1
  %10 = load i16, ptr %9, align 2
  %11 = zext i16 %10 to i64
  %12 = getelementptr inbounds %"struct.llvm::MCWriteProcResEntry", ptr %7, i64 %11
  ret ptr %12
}

; Function Attrs: mustprogress nounwind uwtable
define dso_local void @_ZN4llvm15ResourceManager16reserveResourcesEPKNS_16MCSchedClassDescEi(ptr noundef nonnull align 8 dereferenceable(488) %0, ptr noundef %1, i32 noundef %2) #1 align 2 {
  %4 = alloca ptr, align 8
  %5 = alloca ptr, align 8
  %6 = alloca i32, align 4
  %7 = alloca ptr, align 8
  %8 = alloca %"class.llvm::iterator_range.775", align 8
  %9 = alloca ptr, align 8
  %10 = alloca ptr, align 8
  %11 = alloca ptr, align 8
  %12 = alloca i32, align 4
  %13 = alloca i32, align 4
  store ptr %0, ptr %4, align 8
  store ptr %1, ptr %5, align 8
  store i32 %2, ptr %6, align 4
  %14 = load ptr, ptr %4, align 8
  %15 = getelementptr inbounds nuw %"class.llvm::ResourceManager", ptr %14, i32 0, i32 0
  %16 = load ptr, ptr %15, align 8
  %17 = load ptr, ptr %5, align 8
  %18 = call noundef ptr @_ZNK4llvm15MCSubtargetInfo20getWriteProcResBeginEPKNS_16MCSchedClassDescE(ptr noundef nonnull align 8 dereferenceable(288) %16, ptr noundef %17)
  %19 = getelementptr inbounds nuw %"class.llvm::ResourceManager", ptr %14, i32 0, i32 0
  %20 = load ptr, ptr %19, align 8
  %21 = load ptr, ptr %5, align 8
  %22 = call noundef ptr @_ZNK4llvm15MCSubtargetInfo18getWriteProcResEndEPKNS_16MCSchedClassDescE(ptr noundef nonnull align 8 dereferenceable(288) %20, ptr noundef %21)
  %23 = call { ptr, ptr } @_ZN4llvm10make_rangeIPKNS_19MCWriteProcResEntryEEENS_14iterator_rangeIT_EES5_S5_(ptr noundef %18, ptr noundef %22)
  %24 = getelementptr inbounds nuw { ptr, ptr }, ptr %8, i32 0, i32 0
  %25 = extractvalue { ptr, ptr } %23, 0
  store ptr %25, ptr %24, align 8
  %26 = getelementptr inbounds nuw { ptr, ptr }, ptr %8, i32 0, i32 1
  %27 = extractvalue { ptr, ptr } %23, 1
  store ptr %27, ptr %26, align 8
  store ptr %8, ptr %7, align 8
  %28 = load ptr, ptr %7, align 8
  %29 = call noundef ptr @_ZNK4llvm14iterator_rangeIPKNS_19MCWriteProcResEntryEE5beginEv(ptr noundef nonnull align 8 dereferenceable(16) %28)
  store ptr %29, ptr %9, align 8
  %30 = load ptr, ptr %7, align 8
  %31 = call noundef ptr @_ZNK4llvm14iterator_rangeIPKNS_19MCWriteProcResEntryEE3endEv(ptr noundef nonnull align 8 dereferenceable(16) %30)
  store ptr %31, ptr %10, align 8
  br label %32

32:                                               ; preds = %67, %3
  %33 = load ptr, ptr %9, align 8
  %34 = load ptr, ptr %10, align 8
  %35 = icmp ne ptr %33, %34
  br i1 %35, label %36, label %70

36:                                               ; preds = %32
  %37 = load ptr, ptr %9, align 8
  store ptr %37, ptr %11, align 8
  %38 = load i32, ptr %6, align 4
  store i32 %38, ptr %12, align 4
  br label %39

39:                                               ; preds = %63, %36
  %40 = load i32, ptr %12, align 4
  %41 = load i32, ptr %6, align 4
  %42 = load ptr, ptr %11, align 8
  %43 = getelementptr inbounds nuw %"struct.llvm::MCWriteProcResEntry", ptr %42, i32 0, i32 1
  %44 = load i16, ptr %43, align 2
  %45 = zext i16 %44 to i32
  %46 = add nsw i32 %41, %45
  %47 = icmp slt i32 %40, %46
  br i1 %47, label %48, label %66

48:                                               ; preds = %39
  %49 = getelementptr inbounds nuw %"class.llvm::ResourceManager", ptr %14, i32 0, i32 7
  %50 = load i32, ptr %12, align 4
  %51 = getelementptr inbounds nuw %"class.llvm::ResourceManager", ptr %14, i32 0, i32 10
  %52 = load i32, ptr %51, align 8
  %53 = call noundef i32 @_ZNK4llvm15ResourceManager14positiveModuloEii(ptr noundef nonnull align 8 dereferenceable(488) %14, i32 noundef %50, i32 noundef %52)
  %54 = sext i32 %53 to i64
  %55 = call noundef nonnull align 8 dereferenceable(144) ptr @_ZN4llvm25SmallVectorTemplateCommonINS_11SmallVectorImLj16EEEvEixEm(ptr noundef nonnull align 8 dereferenceable(16) %49, i64 noundef %54)
  %56 = load ptr, ptr %11, align 8
  %57 = getelementptr inbounds nuw %"struct.llvm::MCWriteProcResEntry", ptr %56, i32 0, i32 0
  %58 = load i16, ptr %57, align 2
  %59 = zext i16 %58 to i64
  %60 = call noundef nonnull align 8 dereferenceable(8) ptr @_ZN4llvm25SmallVectorTemplateCommonImvEixEm(ptr noundef nonnull align 8 dereferenceable(16) %55, i64 noundef %59)
  %61 = load i64, ptr %60, align 8
  %62 = add i64 %61, 1
  store i64 %62, ptr %60, align 8
  br label %63

63:                                               ; preds = %48
  %64 = load i32, ptr %12, align 4
  %65 = add nsw i32 %64, 1
  store i32 %65, ptr %12, align 4
  br label %39, !llvm.loop !54

66:                                               ; preds = %39
  br label %67

67:                                               ; preds = %66
  %68 = load ptr, ptr %9, align 8
  %69 = getelementptr inbounds %"struct.llvm::MCWriteProcResEntry", ptr %68, i32 1
  store ptr %69, ptr %9, align 8
  br label %32

70:                                               ; preds = %32
  %71 = load i32, ptr %6, align 4
  store i32 %71, ptr %13, align 4
  br label %72

72:                                               ; preds = %91, %70
  %73 = load i32, ptr %13, align 4
  %74 = load i32, ptr %6, align 4
  %75 = load ptr, ptr %5, align 8
  %76 = load i16, ptr %75, align 2
  %77 = and i16 %76, 8191
  %78 = zext i16 %77 to i32
  %79 = add nsw i32 %74, %78
  %80 = icmp slt i32 %73, %79
  br i1 %80, label %81, label %94

81:                                               ; preds = %72
  %82 = getelementptr inbounds nuw %"class.llvm::ResourceManager", ptr %14, i32 0, i32 8
  %83 = load i32, ptr %13, align 4
  %84 = getelementptr inbounds nuw %"class.llvm::ResourceManager", ptr %14, i32 0, i32 10
  %85 = load i32, ptr %84, align 8
  %86 = call noundef i32 @_ZNK4llvm15ResourceManager14positiveModuloEii(ptr noundef nonnull align 8 dereferenceable(488) %14, i32 noundef %83, i32 noundef %85)
  %87 = sext i32 %86 to i64
  %88 = call noundef nonnull align 4 dereferenceable(4) ptr @_ZN4llvm25SmallVectorTemplateCommonIivEixEm(ptr noundef nonnull align 8 dereferenceable(16) %82, i64 noundef %87)
  %89 = load i32, ptr %88, align 4
  %90 = add nsw i32 %89, 1
  store i32 %90, ptr %88, align 4
  br label %91

91:                                               ; preds = %81
  %92 = load i32, ptr %13, align 4
  %93 = add nsw i32 %92, 1
  store i32 %93, ptr %13, align 4
  br label %72, !llvm.loop !55

94:                                               ; preds = %72
  ret void
}