; Function Attrs: mustprogress nofree norecurse nosync nounwind memory(readwrite, inaccessiblemem: none) uwtable
define dso_local void @_ZN4llvm15ResourceManager16reserveResourcesEPKNS_16MCSchedClassDescEi(ptr nocapture noundef nonnull readonly align 8 dereferenceable(488) %0, ptr nocapture noundef readonly %1, i32 noundef %2) local_unnamed_addr #8 align 2 {
  %4 = load ptr, ptr %0, align 8
  %5 = getelementptr inbounds nuw i8, ptr %4, i64 160
  %6 = load ptr, ptr %5, align 8
  %7 = getelementptr inbounds nuw i8, ptr %1, i64 2
  %8 = load i16, ptr %7, align 2
  %9 = zext i16 %8 to i64
  %10 = getelementptr inbounds %"struct.llvm::MCWriteProcResEntry", ptr %6, i64 %9
  %11 = getelementptr inbounds nuw i8, ptr %1, i64 4
  %12 = load i16, ptr %11, align 2
  %13 = zext i16 %12 to i64
  %14 = getelementptr inbounds %"struct.llvm::MCWriteProcResEntry", ptr %10, i64 %13
  %.not26 = icmp eq i16 %12, 0
  br i1 %.not26, label %.preheader, label %.preheader24.lr.ph

.preheader24.lr.ph:                               ; preds = %3
  %15 = getelementptr inbounds nuw i8, ptr %0, i64 112
  %16 = getelementptr inbounds nuw i8, ptr %0, i64 480
  br label %.preheader24

.preheader24:                                     ; preds = %.preheader24.lr.ph, %._crit_edge
  %.02227 = phi ptr [ %10, %.preheader24.lr.ph ], [ %41, %._crit_edge ]
  %17 = getelementptr inbounds nuw i8, ptr %.02227, i64 2
  %18 = load i16, ptr %17, align 2
  %.not31 = icmp eq i16 %18, 0
  br i1 %.not31, label %._crit_edge, label %.lr.ph

.preheader:                                       ; preds = %._crit_edge, %3
  %19 = load i16, ptr %1, align 2
  %20 = and i16 %19, 8191
  %.not32 = icmp eq i16 %20, 0
  br i1 %.not32, label %._crit_edge30, label %.lr.ph29

.lr.ph29:                                         ; preds = %.preheader
  %21 = getelementptr inbounds nuw i8, ptr %0, i64 272
  %22 = getelementptr inbounds nuw i8, ptr %0, i64 480
  br label %42

.lr.ph:                                           ; preds = %.preheader24, %.lr.ph
  %.02125 = phi i32 [ %36, %.lr.ph ], [ %2, %.preheader24 ]
  %23 = load i32, ptr %16, align 8
  %24 = srem i32 %.02125, %23
  %25 = icmp slt i32 %24, 0
  %26 = select i1 %25, i32 %23, i32 0
  %spec.select.i = add nsw i32 %26, %24
  %27 = sext i32 %spec.select.i to i64
  %28 = load ptr, ptr %15, align 8
  %29 = getelementptr inbounds %"class.llvm::SmallVector.571", ptr %28, i64 %27
  %30 = load i16, ptr %.02227, align 2
  %31 = zext i16 %30 to i64
  %32 = load ptr, ptr %29, align 8
  %33 = getelementptr inbounds i64, ptr %32, i64 %31
  %34 = load i64, ptr %33, align 8
  %35 = add i64 %34, 1
  store i64 %35, ptr %33, align 8
  %36 = add nsw i32 %.02125, 1
  %37 = load i16, ptr %17, align 2
  %38 = zext i16 %37 to i32
  %39 = add nsw i32 %2, %38
  %40 = icmp slt i32 %36, %39
  br i1 %40, label %.lr.ph, label %._crit_edge, !llvm.loop !421

._crit_edge:                                      ; preds = %.lr.ph, %.preheader24
  %41 = getelementptr inbounds i8, ptr %.02227, i64 6
  %.not = icmp eq ptr %41, %14
  br i1 %.not, label %.preheader, label %.preheader24

42:                                               ; preds = %.lr.ph29, %42
  %.028 = phi i32 [ %2, %.lr.ph29 ], [ %52, %42 ]
  %43 = load i32, ptr %22, align 8
  %44 = srem i32 %.028, %43
  %45 = icmp slt i32 %44, 0
  %46 = select i1 %45, i32 %43, i32 0
  %spec.select.i23 = add nsw i32 %46, %44
  %47 = sext i32 %spec.select.i23 to i64
  %48 = load ptr, ptr %21, align 8
  %49 = getelementptr inbounds i32, ptr %48, i64 %47
  %50 = load i32, ptr %49, align 4
  %51 = add nsw i32 %50, 1
  store i32 %51, ptr %49, align 4
  %52 = add nsw i32 %.028, 1
  %53 = load i16, ptr %1, align 2
  %54 = and i16 %53, 8191
  %55 = zext nneg i16 %54 to i32
  %56 = add nsw i32 %2, %55
  %57 = icmp slt i32 %52, %56
  br i1 %57, label %42, label %._crit_edge30, !llvm.loop !422

._crit_edge30:                                    ; preds = %42, %.preheader
  ret void
}